target datalayout = "e-m:e-p270:32:32-p271:32:32-p272:64:64-i64:64-i128:128-f80:128-n8:16:32:64-S128"
target triple = "x86_64-pc-linux-gnu"

%struct.jobacctinfo = type { i32, i64, i32, i64, i32, i32, %struct.acct_gather_energy, double, double, i32, i32, i32, ptr, ptr, ptr, ptr, ptr, ptr, ptr, ptr, ptr, ptr, ptr, ptr, ptr, ptr, ptr, ptr, %struct.jobacct_id_t, i32, double, double, i64, i64 }
%struct.acct_gather_energy = type { i32, i64, i64, i32, i64, i64, i64 }
%struct.jobacct_id_t = type { i32, i32, ptr }

@plugin_inited = internal global i32 0, align 4
@.str.38 = private unnamed_addr constant [42 x i8] c"jobacctinfo_pack version %u not supported\00", align 1

; Function Attrs: nounwind uwtable
define dso_local void @jobacctinfo_pack(ptr noundef %0, i16 noundef zeroext %1, i16 noundef zeroext %2, ptr noundef %3) #0 {
  %5 = alloca ptr, align 8
  %6 = alloca i16, align 2
  %7 = alloca i16, align 2
  %8 = alloca ptr, align 8
  %9 = alloca i8, align 1
  %10 = alloca i32, align 4
  store ptr %0, ptr %5, align 8
  store i16 %1, ptr %6, align 2
  store i16 %2, ptr %7, align 2
  store ptr %3, ptr %8, align 8
  call void @llvm.lifetime.start.p0(i64 1, ptr %9) #8
  %11 = load i32, ptr @plugin_inited, align 4
  %12 = icmp eq i32 %11, 1
  br i1 %12, label %13, label %17

13:                                               ; preds = %4
  %14 = load i16, ptr %7, align 2
  %15 = zext i16 %14 to i32
  %16 = icmp ne i32 %15, 1
  br label %17

17:                                               ; preds = %13, %4
  %18 = phi i1 [ false, %4 ], [ %16, %13 ]
  %19 = zext i1 %18 to i8
  store i8 %19, ptr %9, align 1
  %20 = load ptr, ptr %5, align 8
  %21 = icmp ne ptr %20, null
  br i1 %21, label %22, label %25

22:                                               ; preds = %17
  %23 = load i8, ptr %9, align 1, !range !8, !noundef !9
  %24 = trunc i8 %23 to i1
  br i1 %24, label %25, label %27

25:                                               ; preds = %22, %17
  %26 = load ptr, ptr %8, align 8
  call void @pack8(i8 noundef zeroext 0, ptr noundef %26)
  store i32 1, ptr %10, align 4
  br label %182

27:                                               ; preds = %22
  %28 = load ptr, ptr %8, align 8
  call void @pack8(i8 noundef zeroext 1, ptr noundef %28)
  %29 = load i16, ptr %6, align 2
  %30 = zext i16 %29 to i32
  %31 = icmp sge i32 %30, 10240
  br i1 %31, label %32, label %168

32:                                               ; preds = %27
  %33 = load ptr, ptr %5, align 8
  %34 = getelementptr inbounds nuw %struct.jobacctinfo, ptr %33, i32 0, i32 3
  %35 = load i64, ptr %34, align 8
  %36 = load ptr, ptr %8, align 8
  call void @pack64(i64 noundef %35, ptr noundef %36)
  %37 = load ptr, ptr %5, align 8
  %38 = getelementptr inbounds nuw %struct.jobacctinfo, ptr %37, i32 0, i32 4
  %39 = load i32, ptr %38, align 8
  %40 = load ptr, ptr %8, align 8
  call void @pack32(i32 noundef %39, ptr noundef %40)
  %41 = load ptr, ptr %5, align 8
  %42 = getelementptr inbounds nuw %struct.jobacctinfo, ptr %41, i32 0, i32 1
  %43 = load i64, ptr %42, align 8
  %44 = load ptr, ptr %8, align 8
  call void @pack64(i64 noundef %43, ptr noundef %44)
  %45 = load ptr, ptr %5, align 8
  %46 = getelementptr inbounds nuw %struct.jobacctinfo, ptr %45, i32 0, i32 2
  %47 = load i32, ptr %46, align 8
  %48 = load ptr, ptr %8, align 8
  call void @pack32(i32 noundef %47, ptr noundef %48)
  %49 = load ptr, ptr %5, align 8
  %50 = getelementptr inbounds nuw %struct.jobacctinfo, ptr %49, i32 0, i32 5
  %51 = load i32, ptr %50, align 4
  %52 = load ptr, ptr %8, align 8
  call void @pack32(i32 noundef %51, ptr noundef %52)
  %53 = load ptr, ptr %5, align 8
  %54 = getelementptr inbounds nuw %struct.jobacctinfo, ptr %53, i32 0, i32 6
  %55 = getelementptr inbounds nuw %struct.acct_gather_energy, ptr %54, i32 0, i32 2
  %56 = load i64, ptr %55, align 8
  %57 = load ptr, ptr %8, align 8
  call void @pack64(i64 noundef %56, ptr noundef %57)
  %58 = load ptr, ptr %5, align 8
  %59 = getelementptr inbounds nuw %struct.jobacctinfo, ptr %58, i32 0, i32 12
  %60 = load ptr, ptr %59, align 8
  %61 = load ptr, ptr %5, align 8
  %62 = getelementptr inbounds nuw %struct.jobacctinfo, ptr %61, i32 0, i32 11
  %63 = load i32, ptr %62, align 8
  %64 = load ptr, ptr %8, align 8
  call void @pack32_array(ptr noundef %60, i32 noundef %63, ptr noundef %64)
  %65 = load ptr, ptr %5, align 8
  %66 = getelementptr inbounds nuw %struct.jobacctinfo, ptr %65, i32 0, i32 13
  %67 = load ptr, ptr %66, align 8
  %68 = load ptr, ptr %8, align 8
  %69 = call i32 @slurm_pack_list(ptr noundef %67, ptr noundef @slurmdb_pack_tres_rec, ptr noundef %68, i16 noundef zeroext 11008)
  %70 = load ptr, ptr %5, align 8
  %71 = getelementptr inbounds nuw %struct.jobacctinfo, ptr %70, i32 0, i32 14
  %72 = load ptr, ptr %71, align 8
  %73 = load ptr, ptr %5, align 8
  %74 = getelementptr inbounds nuw %struct.jobacctinfo, ptr %73, i32 0, i32 11
  %75 = load i32, ptr %74, align 8
  %76 = load ptr, ptr %8, align 8
  call void @pack64_array(ptr noundef %72, i32 noundef %75, ptr noundef %76)
  %77 = load ptr, ptr %5, align 8
  %78 = getelementptr inbounds nuw %struct.jobacctinfo, ptr %77, i32 0, i32 15
  %79 = load ptr, ptr %78, align 8
  %80 = load ptr, ptr %5, align 8
  %81 = getelementptr inbounds nuw %struct.jobacctinfo, ptr %80, i32 0, i32 11
  %82 = load i32, ptr %81, align 8
  %83 = load ptr, ptr %8, align 8
  call void @pack64_array(ptr noundef %79, i32 noundef %82, ptr noundef %83)
  %84 = load ptr, ptr %5, align 8
  %85 = getelementptr inbounds nuw %struct.jobacctinfo, ptr %84, i32 0, i32 16
  %86 = load ptr, ptr %85, align 8
  %87 = load ptr, ptr %5, align 8
  %88 = getelementptr inbounds nuw %struct.jobacctinfo, ptr %87, i32 0, i32 11
  %89 = load i32, ptr %88, align 8
  %90 = load ptr, ptr %8, align 8
  call void @pack64_array(ptr noundef %86, i32 noundef %89, ptr noundef %90)
  %91 = load ptr, ptr %5, align 8
  %92 = getelementptr inbounds nuw %struct.jobacctinfo, ptr %91, i32 0, i32 17
  %93 = load ptr, ptr %92, align 8
  %94 = load ptr, ptr %5, align 8
  %95 = getelementptr inbounds nuw %struct.jobacctinfo, ptr %94, i32 0, i32 11
  %96 = load i32, ptr %95, align 8
  %97 = load ptr, ptr %8, align 8
  call void @pack64_array(ptr noundef %93, i32 noundef %96, ptr noundef %97)
  %98 = load ptr, ptr %5, align 8
  %99 = getelementptr inbounds nuw %struct.jobacctinfo, ptr %98, i32 0, i32 18
  %100 = load ptr, ptr %99, align 8
  %101 = load ptr, ptr %5, align 8
  %102 = getelementptr inbounds nuw %struct.jobacctinfo, ptr %101, i32 0, i32 11
  %103 = load i32, ptr %102, align 8
  %104 = load ptr, ptr %8, align 8
  call void @pack64_array(ptr noundef %100, i32 noundef %103, ptr noundef %104)
  %105 = load ptr, ptr %5, align 8
  %106 = getelementptr inbounds nuw %struct.jobacctinfo, ptr %105, i32 0, i32 19
  %107 = load ptr, ptr %106, align 8
  %108 = load ptr, ptr %5, align 8
  %109 = getelementptr inbounds nuw %struct.jobacctinfo, ptr %108, i32 0, i32 11
  %110 = load i32, ptr %109, align 8
  %111 = load ptr, ptr %8, align 8
  call void @pack64_array(ptr noundef %107, i32 noundef %110, ptr noundef %111)
  %112 = load ptr, ptr %5, align 8
  %113 = getelementptr inbounds nuw %struct.jobacctinfo, ptr %112, i32 0, i32 20
  %114 = load ptr, ptr %113, align 8
  %115 = load ptr, ptr %5, align 8
  %116 = getelementptr inbounds nuw %struct.jobacctinfo, ptr %115, i32 0, i32 11
  %117 = load i32, ptr %116, align 8
  %118 = load ptr, ptr %8, align 8
  call void @pack64_array(ptr noundef %114, i32 noundef %117, ptr noundef %118)
  %119 = load ptr, ptr %5, align 8
  %120 = getelementptr inbounds nuw %struct.jobacctinfo, ptr %119, i32 0, i32 21
  %121 = load ptr, ptr %120, align 8
  %122 = load ptr, ptr %5, align 8
  %123 = getelementptr inbounds nuw %struct.jobacctinfo, ptr %122, i32 0, i32 11
  %124 = load i32, ptr %123, align 8
  %125 = load ptr, ptr %8, align 8
  call void @pack64_array(ptr noundef %121, i32 noundef %124, ptr noundef %125)
  %126 = load ptr, ptr %5, align 8
  %127 = getelementptr inbounds nuw %struct.jobacctinfo, ptr %126, i32 0, i32 22
  %128 = load ptr, ptr %127, align 8
  %129 = load ptr, ptr %5, align 8
  %130 = getelementptr inbounds nuw %struct.jobacctinfo, ptr %129, i32 0, i32 11
  %131 = load i32, ptr %130, align 8
  %132 = load ptr, ptr %8, align 8
  call void @pack64_array(ptr noundef %128, i32 noundef %131, ptr noundef %132)
  %133 = load ptr, ptr %5, align 8
  %134 = getelementptr inbounds nuw %struct.jobacctinfo, ptr %133, i32 0, i32 23
  %135 = load ptr, ptr %134, align 8
  %136 = load ptr, ptr %5, align 8
  %137 = getelementptr inbounds nuw %struct.jobacctinfo, ptr %136, i32 0, i32 11
  %138 = load i32, ptr %137, align 8
  %139 = load ptr, ptr %8, align 8
  call void @pack64_array(ptr noundef %135, i32 noundef %138, ptr noundef %139)
  %140 = load ptr, ptr %5, align 8
  %141 = getelementptr inbounds nuw %struct.jobacctinfo, ptr %140, i32 0, i32 24
  %142 = load ptr, ptr %141, align 8
  %143 = load ptr, ptr %5, align 8
  %144 = getelementptr inbounds nuw %struct.jobacctinfo, ptr %143, i32 0, i32 11
  %145 = load i32, ptr %144, align 8
  %146 = load ptr, ptr %8, align 8
  call void @pack64_array(ptr noundef %142, i32 noundef %145, ptr noundef %146)
  %147 = load ptr, ptr %5, align 8
  %148 = getelementptr inbounds nuw %struct.jobacctinfo, ptr %147, i32 0, i32 25
  %149 = load ptr, ptr %148, align 8
  %150 = load ptr, ptr %5, align 8
  %151 = getelementptr inbounds nuw %struct.jobacctinfo, ptr %150, i32 0, i32 11
  %152 = load i32, ptr %151, align 8
  %153 = load ptr, ptr %8, align 8
  call void @pack64_array(ptr noundef %149, i32 noundef %152, ptr noundef %153)
  %154 = load ptr, ptr %5, align 8
  %155 = getelementptr inbounds nuw %struct.jobacctinfo, ptr %154, i32 0, i32 26
  %156 = load ptr, ptr %155, align 8
  %157 = load ptr, ptr %5, align 8
  %158 = getelementptr inbounds nuw %struct.jobacctinfo, ptr %157, i32 0, i32 11
  %159 = load i32, ptr %158, align 8
  %160 = load ptr, ptr %8, align 8
  call void @pack64_array(ptr noundef %156, i32 noundef %159, ptr noundef %160)
  %161 = load ptr, ptr %5, align 8
  %162 = getelementptr inbounds nuw %struct.jobacctinfo, ptr %161, i32 0, i32 27
  %163 = load ptr, ptr %162, align 8
  %164 = load ptr, ptr %5, align 8
  %165 = getelementptr inbounds nuw %struct.jobacctinfo, ptr %164, i32 0, i32 11
  %166 = load i32, ptr %165, align 8
  %167 = load ptr, ptr %8, align 8
  call void @pack64_array(ptr noundef %163, i32 noundef %166, ptr noundef %167)
  br label %181

168:                                              ; preds = %27
  br label %169

169:                                              ; preds = %168
  br label %170

170:                                              ; preds = %169
  %171 = call i32 @get_log_level()
  %172 = icmp sge i32 %171, 3
  br i1 %172, label %173, label %176

173:                                              ; preds = %170
  %174 = load i16, ptr %6, align 2
  %175 = zext i16 %174 to i32
  call void (i32, ptr, ...) @log_var(i32 noundef 3, ptr noundef @.str.38, i32 noundef %175)
  br label %176

176:                                              ; preds = %173, %170
  br label %177

177:                                              ; preds = %176
  br label %178

178:                                              ; preds = %177
  br label %179

179:                                              ; preds = %178
  br label %180

180:                                              ; preds = %179
  store i32 1, ptr %10, align 4
  br label %182

181:                                              ; preds = %32
  store i32 0, ptr %10, align 4
  br label %182

182:                                              ; preds = %181, %180, %25
  call void @llvm.lifetime.end.p0(i64 1, ptr %9) #8
  %183 = load i32, ptr %10, align 4
  switch i32 %183, label %185 [
    i32 0, label %184
    i32 1, label %184
  ]

184:                                              ; preds = %182, %182
  ret void

185:                                              ; preds = %182
  unreachable
}