; Function Attrs: nounwind uwtable
define dso_local void @jobacctinfo_pack(ptr noundef readonly captures(address_is_null) %0, i16 noundef zeroext %1, i16 noundef zeroext %2, ptr noundef %3) #0 {
  %.not = icmp eq ptr %0, null
  br i1 %.not, label %10, label %5

5:                                                ; preds = %4
  %6 = load i32, ptr @plugin_inited, align 4
  %7 = icmp eq i32 %6, 1
  %8 = icmp ne i16 %2, 1
  %9 = and i1 %8, %7
  br i1 %9, label %10, label %11

10:                                               ; preds = %5, %4
  tail call void @pack8(i8 noundef zeroext 0, ptr noundef %3) #10
  br label %80

11:                                               ; preds = %5
  tail call void @pack8(i8 noundef zeroext 1, ptr noundef %3) #10
  %12 = zext i16 %1 to i32
  %13 = icmp ugt i16 %1, 10239
  br i1 %13, label %14, label %76

14:                                               ; preds = %11
  %15 = getelementptr inbounds nuw i8, ptr %0, i64 24
  %16 = load i64, ptr %15, align 8
  tail call void @pack64(i64 noundef %16, ptr noundef %3) #10
  %17 = getelementptr inbounds nuw i8, ptr %0, i64 32
  %18 = load i32, ptr %17, align 8
  tail call void @pack32(i32 noundef %18, ptr noundef %3) #10
  %19 = getelementptr inbounds nuw i8, ptr %0, i64 8
  %20 = load i64, ptr %19, align 8
  tail call void @pack64(i64 noundef %20, ptr noundef %3) #10
  %21 = getelementptr inbounds nuw i8, ptr %0, i64 16
  %22 = load i32, ptr %21, align 8
  tail call void @pack32(i32 noundef %22, ptr noundef %3) #10
  %23 = getelementptr inbounds nuw i8, ptr %0, i64 36
  %24 = load i32, ptr %23, align 4
  tail call void @pack32(i32 noundef %24, ptr noundef %3) #10
  %25 = getelementptr inbounds nuw i8, ptr %0, i64 56
  %26 = load i64, ptr %25, align 8
  tail call void @pack64(i64 noundef %26, ptr noundef %3) #10
  %27 = getelementptr inbounds nuw i8, ptr %0, i64 128
  %28 = load ptr, ptr %27, align 8
  %29 = getelementptr inbounds nuw i8, ptr %0, i64 120
  %30 = load i32, ptr %29, align 8
  tail call void @pack32_array(ptr noundef %28, i32 noundef %30, ptr noundef %3) #10
  %31 = getelementptr inbounds nuw i8, ptr %0, i64 136
  %32 = load ptr, ptr %31, align 8
  %33 = tail call i32 @slurm_pack_list(ptr noundef %32, ptr noundef nonnull @slurmdb_pack_tres_rec, ptr noundef %3, i16 noundef zeroext 11008) #10
  %34 = getelementptr inbounds nuw i8, ptr %0, i64 144
  %35 = load ptr, ptr %34, align 8
  %36 = load i32, ptr %29, align 8
  tail call void @pack64_array(ptr noundef %35, i32 noundef %36, ptr noundef %3) #10
  %37 = getelementptr inbounds nuw i8, ptr %0, i64 152
  %38 = load ptr, ptr %37, align 8
  %39 = load i32, ptr %29, align 8
  tail call void @pack64_array(ptr noundef %38, i32 noundef %39, ptr noundef %3) #10
  %40 = getelementptr inbounds nuw i8, ptr %0, i64 160
  %41 = load ptr, ptr %40, align 8
  %42 = load i32, ptr %29, align 8
  tail call void @pack64_array(ptr noundef %41, i32 noundef %42, ptr noundef %3) #10
  %43 = getelementptr inbounds nuw i8, ptr %0, i64 168
  %44 = load ptr, ptr %43, align 8
  %45 = load i32, ptr %29, align 8
  tail call void @pack64_array(ptr noundef %44, i32 noundef %45, ptr noundef %3) #10
  %46 = getelementptr inbounds nuw i8, ptr %0, i64 176
  %47 = load ptr, ptr %46, align 8
  %48 = load i32, ptr %29, align 8
  tail call void @pack64_array(ptr noundef %47, i32 noundef %48, ptr noundef %3) #10
  %49 = getelementptr inbounds nuw i8, ptr %0, i64 184
  %50 = load ptr, ptr %49, align 8
  %51 = load i32, ptr %29, align 8
  tail call void @pack64_array(ptr noundef %50, i32 noundef %51, ptr noundef %3) #10
  %52 = getelementptr inbounds nuw i8, ptr %0, i64 192
  %53 = load ptr, ptr %52, align 8
  %54 = load i32, ptr %29, align 8
  tail call void @pack64_array(ptr noundef %53, i32 noundef %54, ptr noundef %3) #10
  %55 = getelementptr inbounds nuw i8, ptr %0, i64 200
  %56 = load ptr, ptr %55, align 8
  %57 = load i32, ptr %29, align 8
  tail call void @pack64_array(ptr noundef %56, i32 noundef %57, ptr noundef %3) #10
  %58 = getelementptr inbounds nuw i8, ptr %0, i64 208
  %59 = load ptr, ptr %58, align 8
  %60 = load i32, ptr %29, align 8
  tail call void @pack64_array(ptr noundef %59, i32 noundef %60, ptr noundef %3) #10
  %61 = getelementptr inbounds nuw i8, ptr %0, i64 216
  %62 = load ptr, ptr %61, align 8
  %63 = load i32, ptr %29, align 8
  tail call void @pack64_array(ptr noundef %62, i32 noundef %63, ptr noundef %3) #10
  %64 = getelementptr inbounds nuw i8, ptr %0, i64 224
  %65 = load ptr, ptr %64, align 8
  %66 = load i32, ptr %29, align 8
  tail call void @pack64_array(ptr noundef %65, i32 noundef %66, ptr noundef %3) #10
  %67 = getelementptr inbounds nuw i8, ptr %0, i64 232
  %68 = load ptr, ptr %67, align 8
  %69 = load i32, ptr %29, align 8
  tail call void @pack64_array(ptr noundef %68, i32 noundef %69, ptr noundef %3) #10
  %70 = getelementptr inbounds nuw i8, ptr %0, i64 240
  %71 = load ptr, ptr %70, align 8
  %72 = load i32, ptr %29, align 8
  tail call void @pack64_array(ptr noundef %71, i32 noundef %72, ptr noundef %3) #10
  %73 = getelementptr inbounds nuw i8, ptr %0, i64 248
  %74 = load ptr, ptr %73, align 8
  %75 = load i32, ptr %29, align 8
  tail call void @pack64_array(ptr noundef %74, i32 noundef %75, ptr noundef %3) #10
  br label %80

76:                                               ; preds = %11
  %77 = tail call i32 @get_log_level() #10
  %78 = icmp sgt i32 %77, 2
  br i1 %78, label %79, label %80

79:                                               ; preds = %76
  tail call void (i32, ptr, ...) @log_var(i32 noundef 3, ptr noundef nonnull @.str.38, i32 noundef %12) #10
  br label %80

80:                                               ; preds = %76, %79, %14, %10
  ret void
}